(lp0
(dp1
S'name_metaphone'
p2
S'ALPM'
p3
sS'is_territory'
p4
I00
sS'fips'
p5
V01
p6
sS'name'
p7
VAlabama
p8
sS'abbr'
p9
VAL
p10
sa(dp11
g2
S'ALSK'
p12
sg4
I00
sg5
V02
p13
sg7
VAlaska
p14
sg9
VAK
p15
sa(dp16
g2
S'AMRKNSM'
p17
sg4
I01
sg5
V60
p18
sg7
VAmerican Samoa
p19
sg9
VAS
p20
sa(dp21
g2
S'ARSN'
p22
sg4
I00
sg5
V04
p23
sg7
VArizona
p24
sg9
VAZ
p25
sa(dp26
g2
S'ARKNSS'
p27
sg4
I00
sg5
V05
p28
sg7
VArkansas
p29
sg9
VAR
p30
sa(dp31
g2
S'KLFRN'
p32
sg4
I00
sg5
V06
p33
sg7
VCalifornia
p34
sg9
VCA
p35
sa(dp36
g2
S'KLRT'
p37
sg4
I00
sg5
V08
p38
sg7
VColorado
p39
sg9
VCO
p40
sa(dp41
g2
S'KNKTKT'
p42
sg4
I00
sg5
V09
p43
sg7
VConnecticut
p44
sg9
VCT
p45
sa(dp46
g2
S'TLR'
p47
sg4
I00
sg5
V10
p48
sg7
VDelaware
p49
sg9
VDE
p50
sa(dp51
g2
S'TSTRKTFKLMP'
p52
sg4
I00
sg5
V11
p53
sg7
VDistrict of Columbia
p54
sg9
VDC
p55
sa(dp56
g2
S'FLRT'
p57
sg4
I00
sg5
V12
p58
sg7
VFlorida
p59
sg9
VFL
p60
sa(dp61
g2
S'JRJ'
p62
sg4
I00
sg5
V13
p63
sg7
VGeorgia
p64
sg9
VGA
p65
sa(dp66
g2
S'KM'
p67
sg4
I01
sg5
V66
p68
sg7
VGuam
p69
sg9
VGU
p70
sa(dp71
g2
S'H'
p72
sg4
I00
sg5
V15
p73
sg7
VHawaii
p74
sg9
VHI
p75
sa(dp76
g2
S'ATH'
p77
sg4
I00
sg5
V16
p78
sg7
VIdaho
p79
sg9
VID
p80
sa(dp81
g2
S'ALN'
p82
sg4
I00
sg5
V17
p83
sg7
VIllinois
p84
sg9
VIL
p85
sa(dp86
g2
S'ANTN'
p87
sg4
I00
sg5
V18
p88
sg7
VIndiana
p89
sg9
VIN
p90
sa(dp91
g2
S'A'
p92
sg4
I00
sg5
V19
p93
sg7
VIowa
p94
sg9
VIA
p95
sa(dp96
g2
S'KNSS'
p97
sg4
I00
sg5
V20
p98
sg7
VKansas
p99
sg9
VKS
p100
sa(dp101
g2
S'KNTK'
p102
sg4
I00
sg5
V21
p103
sg7
VKentucky
p104
sg9
VKY
p105
sa(dp106
g2
S'LSN'
p107
sg4
I00
sg5
V22
p108
sg7
VLouisiana
p109
sg9
VLA
p110
sa(dp111
g2
S'MN'
p112
sg4
I00
sg5
V23
p113
sg7
VMaine
p114
sg9
VME
p115
sa(dp116
g2
S'MRLNT'
p117
sg4
I00
sg5
V24
p118
sg7
VMaryland
p119
sg9
VMD
p120
sa(dp121
g2
S'MSKSTS'
p122
sg4
I00
sg5
V25
p123
sg7
VMassachusetts
p124
sg9
VMA
p125
sa(dp126
g2
S'MXKN'
p127
sg4
I00
sg5
V26
p128
sg7
VMichigan
p129
sg9
VMI
p130
sa(dp131
g2
S'MNST'
p132
sg4
I00
sg5
V27
p133
sg7
VMinnesota
p134
sg9
VMN
p135
sa(dp136
g2
S'MSSP'
p137
sg4
I00
sg5
V28
p138
sg7
VMississippi
p139
sg9
VMS
p140
sa(dp141
g2
S'MSR'
p142
sg4
I00
sg5
V29
p143
sg7
VMissouri
p144
sg9
VMO
p145
sa(dp146
g2
S'MNTN'
p147
sg4
I00
sg5
V30
p148
sg7
VMontana
p149
sg9
VMT
p150
sa(dp151
g2
S'NPRSK'
p152
sg4
I00
sg5
V31
p153
sg7
VNebraska
p154
sg9
VNB
p155
sa(dp156
g2
S'NFT'
p157
sg4
I00
sg5
V32
p158
sg7
VNevada
p159
sg9
VNV
p160
sa(dp161
g2
S'NMPXR'
p162
sg4
I00
sg5
V33
p163
sg7
VNew Hampshire
p164
sg9
VNH
p165
sa(dp166
g2
S'NJRS'
p167
sg4
I00
sg5
V34
p168
sg7
VNew Jersey
p169
sg9
VNJ
p170
sa(dp171
g2
S'NMKSK'
p172
sg4
I00
sg5
V35
p173
sg7
VNew Mexico
p174
sg9
VNM
p175
sa(dp176
g2
S'NRK'
p177
sg4
I00
sg5
V36
p178
sg7
VNew York
p179
sg9
VNY
p180
sa(dp181
g2
S'NR0KRLN'
p182
sg4
I00
sg5
V37
p183
sg7
VNorth Carolina
p184
sg9
VNC
p185
sa(dp186
g2
S'NR0TKT'
p187
sg4
I00
sg5
V38
p188
sg7
VNorth Dakota
p189
sg9
VND
p190
sa(dp191
g2
S'NR0RNMRNLNTS'
p192
sg4
I01
sg5
V69
p193
sg7
VNorthern Mariana Islands
p194
sg9
VMP
p195
sa(dp196
g2
S'AH'
p197
sg4
I00
sg5
V39
p198
sg7
VOhio
p199
sg9
VOH
p200
sa(dp201
g2
S'AKLHM'
p202
sg4
I00
sg5
V40
p203
sg7
VOklahoma
p204
sg9
VOK
p205
sa(dp206
g2
S'ARKN'
p207
sg4
I00
sg5
V41
p208
sg7
VOregon
p209
sg9
VOR
p210
sa(dp211
g2
S'PNSLFN'
p212
sg4
I00
sg5
V42
p213
sg7
VPennsylvania
p214
sg9
VPA
p215
sa(dp216
g2
S'PRTRK'
p217
sg4
I01
sg5
V72
p218
sg7
VPuerto Rico
p219
sg9
VPR
p220
sa(dp221
g2
S'RTLNT'
p222
sg4
I00
sg5
V44
p223
sg7
VRhode Island
p224
sg9
VRI
p225
sa(dp226
g2
S'S0KRLN'
p227
sg4
I00
sg5
V45
p228
sg7
VSouth Carolina
p229
sg9
VSC
p230
sa(dp231
g2
S'S0TKT'
p232
sg4
I00
sg5
V46
p233
sg7
VSouth Dakota
p234
sg9
VSD
p235
sa(dp236
g2
S'TNS'
p237
sg4
I00
sg5
V47
p238
sg7
VTennessee
p239
sg9
VTN
p240
sa(dp241
g2
S'TKSS'
p242
sg4
I00
sg5
V48
p243
sg7
VTexas
p244
sg9
VTX
p245
sa(dp246
g2
S'AT'
p247
sg4
I00
sg5
V49
p248
sg7
VUtah
p249
sg9
VUT
p250
sa(dp251
g2
S'FRMNT'
p252
sg4
I00
sg5
V50
p253
sg7
VVermont
p254
sg9
VVT
p255
sa(dp256
g2
S'FRJNLNTS'
p257
sg4
I01
sg5
V78
p258
sg7
VVirgin Islands
p259
sg9
VVI
p260
sa(dp261
g2
S'FRJN'
p262
sg4
I00
sg5
V51
p263
sg7
VVirginia
p264
sg9
VVA
p265
sa(dp266
g2
S'AXNKTN'
p267
sg4
I00
sg5
V53
p268
sg7
VWashington
p269
sg9
VWA
p270
sa(dp271
g2
S'ASTFRJN'
p272
sg4
I00
sg5
V54
p273
sg7
VWest Virginia
p274
sg9
VWV
p275
sa(dp276
g2
S'ASKNSN'
p277
sg4
I00
sg5
V55
p278
sg7
VWisconsin
p279
sg9
VWI
p280
sa(dp281
g2
S'AMNK'
p282
sg4
I00
sg5
V56
p283
sg7
VWyoming
p284
sg9
VWY
p285
sa.